; ModuleID = '15/761.c'
source_filename = "15/761.c"
target datalayout = "e-m:e-p270:32:32-p271:32:32-p272:64:64-i64:64-f80:128-n8:16:32:64-S128"
target triple = "x86_64-pc-linux-gnu"

@.str = private unnamed_addr constant [3 x i8] c"%d\00", align 1

; Function Attrs: noinline nounwind uwtable
define dso_local i32 @main() #0 {
  %1 = alloca i32, align 4
  %2 = alloca [100 x [100 x i32]], align 16
  %3 = alloca i32, align 4
  %4 = alloca i32, align 4
  %5 = alloca i32, align 4
  %6 = alloca i32, align 4
  %7 = alloca i32, align 4
  %8 = alloca i32, align 4
  %9 = alloca i32, align 4
  %10 = alloca i32, align 4
  store i32 0, i32* %1, align 4
  store i32 1, i32* %10, align 4
  %11 = call i32 (i8*, ...) @__isoc99_scanf(i8* getelementptr inbounds ([3 x i8], [3 x i8]* @.str, i64 0, i64 0), i32* %3)
  store i32 0, i32* %4, align 4
  br label %12

12:                                               ; preds = %48, %0
  %13 = load i32, i32* %4, align 4
  %14 = load i32, i32* %3, align 4
  %15 = icmp slt i32 %13, %14
  br i1 %15, label %16, label %51

16:                                               ; preds = %12
  store i32 0, i32* %5, align 4
  br label %17

17:                                               ; preds = %44, %16
  %18 = load i32, i32* %5, align 4
  %19 = load i32, i32* %3, align 4
  %20 = icmp slt i32 %18, %19
  br i1 %20, label %21, label %47

21:                                               ; preds = %17
  %22 = load i32, i32* %4, align 4
  %23 = sext i32 %22 to i64
  %24 = getelementptr inbounds [100 x [100 x i32]], [100 x [100 x i32]]* %2, i64 0, i64 %23
  %25 = load i32, i32* %5, align 4
  %26 = sext i32 %25 to i64
  %27 = getelementptr inbounds [100 x i32], [100 x i32]* %24, i64 0, i64 %26
  %28 = call i32 (i8*, ...) @__isoc99_scanf(i8* getelementptr inbounds ([3 x i8], [3 x i8]* @.str, i64 0, i64 0), i32* %27)
  %29 = load i32, i32* %10, align 4
  %30 = icmp eq i32 %29, 1
  br i1 %30, label %31, label %43

31:                                               ; preds = %21
  %32 = load i32, i32* %4, align 4
  %33 = sext i32 %32 to i64
  %34 = getelementptr inbounds [100 x [100 x i32]], [100 x [100 x i32]]* %2, i64 0, i64 %33
  %35 = load i32, i32* %5, align 4
  %36 = sext i32 %35 to i64
  %37 = getelementptr inbounds [100 x i32], [100 x i32]* %34, i64 0, i64 %36
  %38 = load i32, i32* %37, align 4
  %39 = icmp eq i32 %38, 0
  br i1 %39, label %40, label %43

40:                                               ; preds = %31
  %41 = load i32, i32* %4, align 4
  store i32 %41, i32* %6, align 4
  %42 = load i32, i32* %5, align 4
  store i32 %42, i32* %7, align 4
  store i32 0, i32* %10, align 4
  br label %43

43:                                               ; preds = %40, %31, %21
  br label %44

44:                                               ; preds = %43
  %45 = load i32, i32* %5, align 4
  %46 = add nsw i32 %45, 1
  store i32 %46, i32* %5, align 4
  br label %17

47:                                               ; preds = %17
  br label %48

48:                                               ; preds = %47
  %49 = load i32, i32* %4, align 4
  %50 = add nsw i32 %49, 1
  store i32 %50, i32* %4, align 4
  br label %12

51:                                               ; preds = %12
  store i32 0, i32* %10, align 4
  %52 = load i32, i32* %3, align 4
  %53 = sub nsw i32 %52, 1
  store i32 %53, i32* %4, align 4
  br label %54

54:                                               ; preds = %84, %51
  %55 = load i32, i32* %4, align 4
  %56 = icmp sge i32 %55, 0
  br i1 %56, label %57, label %87

57:                                               ; preds = %54
  %58 = load i32, i32* %3, align 4
  %59 = sub nsw i32 %58, 1
  store i32 %59, i32* %5, align 4
  br label %60

60:                                               ; preds = %76, %57
  %61 = load i32, i32* %5, align 4
  %62 = icmp sge i32 %61, 0
  br i1 %62, label %63, label %79

63:                                               ; preds = %60
  %64 = load i32, i32* %4, align 4
  %65 = sext i32 %64 to i64
  %66 = getelementptr inbounds [100 x [100 x i32]], [100 x [100 x i32]]* %2, i64 0, i64 %65
  %67 = load i32, i32* %5, align 4
  %68 = sext i32 %67 to i64
  %69 = getelementptr inbounds [100 x i32], [100 x i32]* %66, i64 0, i64 %68
  %70 = load i32, i32* %69, align 4
  %71 = icmp eq i32 %70, 0
  br i1 %71, label %72, label %75

72:                                               ; preds = %63
  %73 = load i32, i32* %4, align 4
  store i32 %73, i32* %8, align 4
  %74 = load i32, i32* %5, align 4
  store i32 %74, i32* %9, align 4
  store i32 1, i32* %10, align 4
  br label %79

75:                                               ; preds = %63
  br label %76

76:                                               ; preds = %75
  %77 = load i32, i32* %5, align 4
  %78 = add nsw i32 %77, -1
  store i32 %78, i32* %5, align 4
  br label %60

79:                                               ; preds = %72, %60
  %80 = load i32, i32* %10, align 4
  %81 = icmp eq i32 %80, 1
  br i1 %81, label %82, label %83

82:                                               ; preds = %79
  br label %87

83:                                               ; preds = %79
  br label %84

84:                                               ; preds = %83
  %85 = load i32, i32* %4, align 4
  %86 = add nsw i32 %85, -1
  store i32 %86, i32* %4, align 4
  br label %54

87:                                               ; preds = %82, %54
  %88 = load i32, i32* %8, align 4
  %89 = load i32, i32* %6, align 4
  %90 = add nsw i32 %89, 2
  %91 = icmp eq i32 %88, %90
  br i1 %91, label %92, label %99

92:                                               ; preds = %87
  %93 = load i32, i32* %9, align 4
  %94 = load i32, i32* %7, align 4
  %95 = add nsw i32 %94, 2
  %96 = icmp eq i32 %93, %95
  br i1 %96, label %97, label %99

97:                                               ; preds = %92
  %98 = call i32 (i8*, ...) @printf(i8* getelementptr inbounds ([3 x i8], [3 x i8]* @.str, i64 0, i64 0), i32 1)
  br label %110

99:                                               ; preds = %92, %87
  %100 = load i32, i32* %8, align 4
  %101 = load i32, i32* %6, align 4
  %102 = sub nsw i32 %100, %101
  %103 = sub nsw i32 %102, 1
  %104 = load i32, i32* %9, align 4
  %105 = load i32, i32* %7, align 4
  %106 = sub nsw i32 %104, %105
  %107 = sub nsw i32 %106, 1
  %108 = mul nsw i32 %103, %107
  %109 = call i32 (i8*, ...) @printf(i8* getelementptr inbounds ([3 x i8], [3 x i8]* @.str, i64 0, i64 0), i32 %108)
  br label %110

110:                                              ; preds = %99, %97
  ret i32 0
}

declare dso_local i32 @__isoc99_scanf(i8*, ...) #1

declare dso_local i32 @printf(i8*, ...) #1


!llvm.module.flags = !{!0}
!llvm.ident = !{!1}

!0 = !{i32 1, !"wchar_size", i32 4}
!1 = !{!"clang version 10.0.0-4ubuntu1 "}
